target datalayout = "e-m:e-p270:32:32-p271:32:32-p272:64:64-i64:64-i128:128-f80:128-n8:16:32:64-S128"
target triple = "x86_64-pc-linux-gnu"

; Function Attrs: mustprogress uwtable
define noundef i64 @_ZNK3net30QuicMultipathSentPacketManager27GetLeastPacketAwaitedByPeerEh(ptr noundef nonnull align 8 dereferenceable(40) %0, i8 noundef zeroext %1) unnamed_addr #0 align 2 {
  %3 = alloca i64, align 8
  %4 = alloca ptr, align 8
  %5 = alloca i8, align 1
  %6 = alloca ptr, align 8
  %7 = alloca i32, align 4
  store ptr %0, ptr %4, align 8, !tbaa !3
  store i8 %1, ptr %5, align 1, !tbaa !42
  %8 = load ptr, ptr %4, align 8
  call void @llvm.lifetime.start.p0(i64 8, ptr %6) #15
  %9 = load i8, ptr %5, align 1, !tbaa !42
  %10 = call noundef ptr @_ZNK3net30QuicMultipathSentPacketManager32MaybeGetSentPacketManagerForPathEh(ptr noundef nonnull align 8 dereferenceable(40) %8, i8 noundef zeroext %9)
  store ptr %10, ptr %6, align 8, !tbaa !8
  %11 = load ptr, ptr %6, align 8, !tbaa !8
  %12 = icmp eq ptr %11, null
  br i1 %12, label %13, label %14

13:                                               ; preds = %2
  store i64 0, ptr %3, align 8
  store i32 1, ptr %7, align 4
  br label %21

14:                                               ; preds = %2
  %15 = load ptr, ptr %6, align 8, !tbaa !8
  %16 = load i8, ptr %5, align 1, !tbaa !42
  %17 = load ptr, ptr %15, align 8, !tbaa !12
  %18 = getelementptr inbounds ptr, ptr %17, i64 33
  %19 = load ptr, ptr %18, align 8
  %20 = call noundef i64 %19(ptr noundef nonnull align 8 dereferenceable(8) %15, i8 noundef zeroext %16)
  store i64 %20, ptr %3, align 8
  store i32 1, ptr %7, align 4
  br label %21

21:                                               ; preds = %14, %13
  call void @llvm.lifetime.end.p0(i64 8, ptr %6) #15
  %22 = load i64, ptr %3, align 8
  ret i64 %22
}